target datalayout = "e-m:e-p270:32:32-p271:32:32-p272:64:64-i64:64-i128:128-f80:128-n8:16:32:64-S128"
target triple = "x86_64-pc-linux-gnu"

%class.StackSlotAnalysisData = type { i32 }

@_ZN21StackSlotAnalysisDataC1E9BasicType = hidden unnamed_addr alias void (ptr, i8), ptr @_ZN21StackSlotAnalysisDataC2E9BasicType
@_ZN21StackSlotAnalysisDataC1Ei9BasicType = hidden unnamed_addr alias void (ptr, i32, i8), ptr @_ZN21StackSlotAnalysisDataC2Ei9BasicType

; Function Attrs: mustprogress nounwind uwtable
define hidden noundef i32 @_ZN21StackSlotAnalysisData7get_bciEv(ptr noundef nonnull align 4 dereferenceable(4) %0) #1 align 2 {
  %2 = alloca ptr, align 8
  store ptr %0, ptr %2, align 8
  %3 = load ptr, ptr %2, align 8
  %4 = load i32, ptr %3, align 4
  %5 = and i32 %4, 131071
  ret i32 %5
}

; Function Attrs: mustprogress nounwind uwtable
define hidden noundef zeroext i8 @_ZN21StackSlotAnalysisData8get_typeEv(ptr noundef nonnull align 4 dereferenceable(4) %0) #1 align 2 {
  %2 = alloca ptr, align 8
  store ptr %0, ptr %2, align 8
  %3 = load ptr, ptr %2, align 8
  %4 = load i32, ptr %3, align 4
  %5 = lshr i32 %4, 17
  %6 = trunc i32 %5 to i8
  ret i8 %6
}

; Function Attrs: mustprogress nounwind uwtable
define hidden i32 @_ZN21StackSlotAnalysisData5mergeES_(ptr noundef nonnull align 4 dereferenceable(4) %0, i32 %1) #1 align 2 {
  %3 = alloca %class.StackSlotAnalysisData, align 4
  %4 = alloca %class.StackSlotAnalysisData, align 4
  %5 = alloca ptr, align 8
  %6 = getelementptr inbounds %class.StackSlotAnalysisData, ptr %4, i32 0, i32 0
  store i32 %1, ptr %6, align 4
  store ptr %0, ptr %5, align 8
  %7 = load ptr, ptr %5, align 8
  %8 = call noundef zeroext i8 @_ZN21StackSlotAnalysisData8get_typeEv(ptr noundef nonnull align 4 dereferenceable(4) %7)
  %9 = zext i8 %8 to i32
  %10 = call noundef zeroext i8 @_ZN21StackSlotAnalysisData8get_typeEv(ptr noundef nonnull align 4 dereferenceable(4) %4)
  %11 = zext i8 %10 to i32
  %12 = icmp ne i32 %9, %11
  br i1 %12, label %13, label %37

13:                                               ; preds = %2
  %14 = call noundef zeroext i8 @_ZN21StackSlotAnalysisData8get_typeEv(ptr noundef nonnull align 4 dereferenceable(4) %7)
  %15 = zext i8 %14 to i32
  %16 = icmp eq i32 %15, 12
  br i1 %16, label %21, label %17

17:                                               ; preds = %13
  %18 = call noundef zeroext i8 @_ZN21StackSlotAnalysisData8get_typeEv(ptr noundef nonnull align 4 dereferenceable(4) %7)
  %19 = zext i8 %18 to i32
  %20 = icmp eq i32 %19, 13
  br i1 %20, label %21, label %36

21:                                               ; preds = %17, %13
  %22 = call noundef zeroext i8 @_ZN21StackSlotAnalysisData8get_typeEv(ptr noundef nonnull align 4 dereferenceable(4) %4)
  %23 = zext i8 %22 to i32
  %24 = icmp eq i32 %23, 12
  br i1 %24, label %29, label %25

25:                                               ; preds = %21
  %26 = call noundef zeroext i8 @_ZN21StackSlotAnalysisData8get_typeEv(ptr noundef nonnull align 4 dereferenceable(4) %4)
  %27 = zext i8 %26 to i32
  %28 = icmp eq i32 %27, 13
  br i1 %28, label %29, label %36

29:                                               ; preds = %25, %21
  %30 = call noundef i32 @_ZN21StackSlotAnalysisData7get_bciEv(ptr noundef nonnull align 4 dereferenceable(4) %7)
  %31 = call noundef i32 @_ZN21StackSlotAnalysisData7get_bciEv(ptr noundef nonnull align 4 dereferenceable(4) %4)
  %32 = icmp eq i32 %30, %31
  br i1 %32, label %33, label %35

33:                                               ; preds = %29
  %34 = call noundef i32 @_ZN21StackSlotAnalysisData7get_bciEv(ptr noundef nonnull align 4 dereferenceable(4) %7)
  call void @_ZN21StackSlotAnalysisDataC1Ei9BasicType(ptr noundef nonnull align 4 dereferenceable(4) %3, i32 noundef %34, i8 noundef zeroext 12)
  br label %44

35:                                               ; preds = %29
  call void @_ZN21StackSlotAnalysisDataC1E9BasicType(ptr noundef nonnull align 4 dereferenceable(4) %3, i8 noundef zeroext 12)
  br label %44

36:                                               ; preds = %25, %17
  call void @_ZN21StackSlotAnalysisDataC1E9BasicType(ptr noundef nonnull align 4 dereferenceable(4) %3, i8 noundef zeroext 19)
  br label %44

37:                                               ; preds = %2
  %38 = call noundef i32 @_ZN21StackSlotAnalysisData7get_bciEv(ptr noundef nonnull align 4 dereferenceable(4) %7)
  %39 = call noundef i32 @_ZN21StackSlotAnalysisData7get_bciEv(ptr noundef nonnull align 4 dereferenceable(4) %4)
  %40 = icmp eq i32 %38, %39
  br i1 %40, label %41, label %42

41:                                               ; preds = %37
  call void @llvm.memcpy.p0.p0.i64(ptr align 4 %3, ptr align 4 %7, i64 4, i1 false)
  br label %44

42:                                               ; preds = %37
  %43 = call noundef zeroext i8 @_ZN21StackSlotAnalysisData8get_typeEv(ptr noundef nonnull align 4 dereferenceable(4) %7)
  call void @_ZN21StackSlotAnalysisDataC1E9BasicType(ptr noundef nonnull align 4 dereferenceable(4) %3, i8 noundef zeroext %43)
  br label %44

44:                                               ; preds = %42, %41, %36, %35, %33
  %45 = getelementptr inbounds %class.StackSlotAnalysisData, ptr %3, i32 0, i32 0
  %46 = load i32, ptr %45, align 4
  ret i32 %46
}