; Function Attrs: mustprogress nofree norecurse nosync nounwind willreturn memory(argmem: read) uwtable
define hidden i32 @_ZN21StackSlotAnalysisData5mergeES_(ptr nocapture noundef nonnull readonly align 4 dereferenceable(4) %0, i32 %1) local_unnamed_addr #1 align 2 {
  %3 = load i32, ptr %0, align 4
  %4 = lshr i32 %3, 17
  %5 = trunc i32 %4 to i8
  %6 = lshr i32 %1, 17
  %7 = trunc i32 %6 to i8
  %.not = icmp eq i8 %5, %7
  br i1 %.not, label %18, label %8

8:                                                ; preds = %2
  %9 = and i8 %5, -2
  %switch = icmp eq i8 %9, 12
  %10 = and i8 %7, -2
  %switch7 = icmp eq i8 %10, 12
  %or.cond = and i1 %switch7, %switch
  br i1 %or.cond, label %11, label %25

11:                                               ; preds = %8
  %12 = xor i32 %3, %1
  %13 = and i32 %12, 131071
  %14 = icmp eq i32 %13, 0
  br i1 %14, label %15, label %25

15:                                               ; preds = %11
  %16 = and i32 %3, 65535
  %17 = or disjoint i32 %16, 1572864
  br label %25

18:                                               ; preds = %2
  %19 = xor i32 %3, %1
  %20 = and i32 %19, 131071
  %21 = icmp eq i32 %20, 0
  br i1 %21, label %25, label %22

22:                                               ; preds = %18
  %23 = and i32 %3, 33423360
  %24 = or disjoint i32 %23, 131071
  br label %25

25:                                               ; preds = %8, %18, %11, %22, %15
  %.sroa.05.0 = phi i32 [ %24, %22 ], [ %17, %15 ], [ 1703935, %11 ], [ %3, %18 ], [ 2621439, %8 ]
  ret i32 %.sroa.05.0
}